Certificate:
    Data:
        Version: 1 (0x0)
        Serial Number: 4097 (0x1001)
    Signature Algorithm: sha256WithRSAEncryption
        Issuer: C=TR, ST=Turkey, O=Arcelik A.S, CN=Arcelik A.S Intermediate CA
        Validity
            Not Before: Feb 10 08:31:46 2016 GMT
            Not After : Feb 19 08:31:46 2017 GMT
        Subject: C=TR, ST=Ankara, O=Dev2 Ltd, CN=Dev2
        Subject Public Key Info:
            Public Key Algorithm: rsaEncryption
                Public-Key: (2048 bit)
                Modulus:
                    00:e2:d0:94:ed:71:36:1b:c1:7b:d1:c9:fe:95:69:
                    52:16:18:56:a0:23:41:4c:56:d6:5b:e8:e3:fd:6e:
                    53:98:ae:bc:a7:1e:5d:4a:d1:45:82:4e:06:57:f1:
                    6c:ba:da:50:e1:00:c3:00:ca:a5:7d:d4:ca:e2:30:
                    9c:04:05:5d:4c:b5:e8:fd:cb:bb:3f:76:fb:c3:4f:
                    04:d9:b9:8f:86:eb:e3:9a:57:5e:d9:7f:51:08:1f:
                    12:fa:36:6e:6c:92:09:ad:2f:18:bf:4a:76:49:03:
                    05:cb:6e:fa:f5:53:0a:18:9e:95:dd:99:21:7c:58:
                    1b:47:6e:86:0c:c8:2e:c4:72:a5:f3:20:98:2b:89:
                    b1:e9:5e:5c:d6:0a:a9:5b:e8:62:72:43:a3:bf:98:
                    61:b5:d1:20:bd:e9:7a:2f:ea:b5:49:f0:3b:f5:98:
                    54:d5:c8:2e:3c:4d:12:45:76:e0:e6:aa:eb:71:ab:
                    75:39:c6:19:9e:cd:47:4a:43:e3:73:20:8d:76:e9:
                    e6:3c:af:67:f5:87:d2:f7:92:d1:fa:2f:6c:fe:9d:
                    17:6e:91:60:ee:0e:cb:f5:bb:ab:15:70:00:fb:64:
                    0f:41:21:9a:ad:d0:9b:e5:18:c3:0c:8e:51:c7:16:
                    c9:b3:13:e2:72:c1:61:8e:59:14:4c:50:83:5d:bc:
                    ab:e3
                Exponent: 65537 (0x10001)
    Signature Algorithm: sha256WithRSAEncryption
         74:a5:3a:24:01:7e:dc:89:72:09:27:0e:a1:74:76:d7:8f:e5:
         c7:75:5f:7d:45:a7:d5:d7:d4:f3:87:ff:62:7a:c8:19:dc:d4:
         c9:87:9c:6f:3d:a5:c1:87:aa:a0:dd:a2:e5:3a:d7:c6:ac:66:
         44:74:78:47:5f:bd:83:8e:f5:f5:08:ed:fe:9f:a6:a1:88:39:
         28:82:70:40:e3:55:f6:d2:06:10:ca:5c:12:99:c2:18:b2:39:
         91:d6:9c:32:b0:01:88:d2:e0:5c:84:16:74:d0:19:ca:d2:f6:
         73:b1:27:b5:c5:2a:31:3e:b2:42:f9:b7:cb:97:54:e3:28:64:
         c1:f6:36:3e:d8:36:ba:a3:86:64:bf:4b:e9:24:ff:d8:0e:22:
         69:7d:ca:96:f7:62:80:b7:63:d4:b8:c4:7f:60:a6:35:9f:b6:
         29:62:8d:e4:0e:fc:c3:a1:0d:4c:03:52:56:f3:b5:92:0e:db:
         8f:8f:15:ef:f5:5c:9e:a4:ed:ae:3c:a1:0d:04:76:03:1d:fa:
         b9:ff:f8:81:b4:fd:64:36:8a:66:69:44:94:3f:13:b2:48:31:
         72:22:e9:65:79:3c:7b:53:fe:be:f2:cd:00:ec:53:f1:53:d6:
         07:a1:cc:a8:cf:a8:c2:fd:c8:87:4f:c0:d4:50:a3:9f:f2:20:
         b0:5b:1e:2e:63:66:01:fb:bc:8a:6c:5d:af:e3:48:b3:19:84:
         16:41:86:21:9c:fd:df:64:45:93:1b:d9:c8:d1:19:73:db:64:
         c1:c3:07:36:fd:e5:db:7b:79:a8:62:0e:e7:1c:81:da:c2:ae:
         5f:82:ff:70:1c:19:5d:dc:9d:66:19:70:b0:0a:b4:1d:e5:0e:
         67:35:ea:b3:3e:25:f0:41:92:da:d0:52:ee:e2:a7:08:a6:f2:
         33:f6:f9:72:71:4d:34:a3:ce:a6:6e:7f:54:1f:5b:11:65:69:
         24:cb:ac:42:1d:4f:47:45:af:19:b4:93:0d:33:93:78:ad:9b:
         07:36:9c:c0:75:b2:22:20:b5:f5:c6:1e:2f:3d:25:58:f0:18:
         99:87:0f:95:6f:07:8b:bf:38:c9:c4:63:58:b0:72:6c:f5:ca:
         2c:b5:7e:74:75:30:0e:8b:c1:5a:29:3f:5e:44:90:e1:32:1b:
         ff:6e:9d:63:05:d7:6c:0c:ac:fe:7c:af:61:de:5a:28:e8:8e:
         02:d2:11:63:ea:7d:ef:e2:98:2b:63:a5:15:e5:0e:f0:06:88:
         a3:9b:ce:94:c5:27:3d:da:fe:0f:b4:9b:cf:fa:4f:e4:9a:36:
         ff:01:74:2f:31:86:55:03:c6:fe:bd:79:b7:0d:ae:0a:31:0d:
         85:76:59:f0:27:fe:c4:af
-----BEGIN CERTIFICATE-----
MIIEDzCCAfcCAhABMA0GCSqGSIb3DQEBCwUAMFoxCzAJBgNVBAYTAlRSMQ8wDQYD
VQQIDAZUdXJrZXkxFDASBgNVBAoMC0FyY2VsaWsgQS5TMSQwIgYDVQQDDBtBcmNl
bGlrIEEuUyBJbnRlcm1lZGlhdGUgQ0EwHhcNMTYwMjEwMDgzMTQ2WhcNMTcwMjE5
MDgzMTQ2WjBAMQswCQYDVQQGEwJUUjEPMA0GA1UECAwGQW5rYXJhMREwDwYDVQQK
DAhEZXYyIEx0ZDENMAsGA1UEAwwERGV2MjCCASIwDQYJKoZIhvcNAQEBBQADggEP
ADCCAQoCggEBAOLQlO1xNhvBe9HJ/pVpUhYYVqAjQUxW1lvo4/1uU5iuvKceXUrR
RYJOBlfxbLraUOEAwwDKpX3UyuIwnAQFXUy16P3Luz92+8NPBNm5j4br45pXXtl/
UQgfEvo2bmySCa0vGL9KdkkDBctu+vVTChield2ZIXxYG0duhgzILsRypfMgmCuJ
seleXNYKqVvoYnJDo7+YYbXRIL3pei/qtUnwO/WYVNXILjxNEkV24Oaq63GrdTnG
GZ7NR0pD43MgjXbp5jyvZ/WH0veS0fovbP6dF26RYO4Oy/W7qxVwAPtkD0Ehmq3Q
m+UYwwyOUccWybMT4nLBYY5ZFExQg128q+MCAwEAATANBgkqhkiG9w0BAQsFAAOC
AgEAdKU6JAF+3IlyCScOoXR214/lx3VffUWn1dfU84f/YnrIGdzUyYecbz2lwYeq
oN2i5TrXxqxmRHR4R1+9g4719Qjt/p+moYg5KIJwQONV9tIGEMpcEpnCGLI5kdac
MrABiNLgXIQWdNAZytL2c7EntcUqMT6yQvm3y5dU4yhkwfY2Ptg2uqOGZL9L6ST/
2A4iaX3KlvdigLdj1LjEf2CmNZ+2KWKN5A78w6ENTANSVvO1kg7bj48V7/VcnqTt
rjyhDQR2Ax36uf/4gbT9ZDaKZmlElD8TskgxciLpZXk8e1P+vvLNAOxT8VPWB6HM
qM+owv3Ih0/A1FCjn/IgsFseLmNmAfu8imxdr+NIsxmEFkGGIZz932RFkxvZyNEZ
c9tkwcMHNv3l23t5qGIO5xyB2sKuX4L/cBwZXdydZhlwsAq0HeUOZzXqsz4l8EGS
2tBS7uKnCKbyM/b5cnFNNKPOpm5/VB9bEWVpJMusQh1PR0WvGbSTDTOTeK2bBzac
wHWyIiC19cYeLz0lWPAYmYcPlW8Hi784ycRjWLBybPXKLLV+dHUwDovBWik/XkSQ
4TIb/26dYwXXbAys/nyvYd5aKOiOAtIRY+p97+KYK2OlFeUO8AaIo5vOlMUnPdr+
D7Sbz/pP5Jo2/wF0LzGGVQPG/r15tw2uCjENhXZZ8Cf+xK8=
-----END CERTIFICATE-----
