Certificate:
    Data:
        Version: 1 (0x0)
        Serial Number: 4096 (0x1000)
    Signature Algorithm: sha256WithRSAEncryption
        Issuer: C=TR, ST=Turkey, O=Arcelik A.S, CN=Arcelik A.S Intermediate CA
        Validity
            Not Before: Feb 10 08:29:36 2016 GMT
            Not After : Feb 19 08:29:36 2017 GMT
        Subject: C=TR, ST=Ankara, O=Dev1 Ltd, CN=Dev1
        Subject Public Key Info:
            Public Key Algorithm: rsaEncryption
                Public-Key: (2048 bit)
                Modulus:
                    00:ad:b1:09:ea:d0:99:71:28:54:59:25:f6:da:56:
                    ee:bf:cc:13:66:60:74:ac:d5:2b:89:97:63:96:a6:
                    6e:5c:5e:a9:10:9e:33:c5:95:06:42:36:31:e1:75:
                    15:50:44:56:e5:d0:d1:68:dc:b4:75:9b:f4:24:56:
                    b7:96:80:14:70:1b:be:02:70:04:5a:ba:7e:03:c3:
                    91:fe:ff:b9:93:7f:c6:41:b9:22:c4:45:d0:ce:63:
                    95:4b:fe:65:c6:8b:ae:bd:00:b5:74:81:d0:3e:8d:
                    88:87:31:0b:3d:f3:b4:c4:06:f1:d9:f4:92:6f:c8:
                    a1:cb:af:67:ee:6f:f3:0c:0c:3d:dd:79:5f:ed:72:
                    a5:b0:13:13:4c:61:2d:ab:9c:a6:66:f4:7c:0b:c2:
                    30:68:56:30:62:f1:38:46:17:e2:a2:c2:71:61:0c:
                    7f:2b:1d:9b:d1:c3:a4:59:f6:2d:75:0a:3f:50:31:
                    bc:65:c8:cf:6e:a9:0c:7b:75:26:7c:1c:84:58:47:
                    4a:ee:8c:85:81:cf:88:40:f5:c0:cf:97:44:26:36:
                    dd:33:38:78:d0:58:38:2c:f7:ee:35:ea:6a:32:9b:
                    f0:5f:20:14:86:e3:25:e2:8d:f9:2c:94:c1:21:f1:
                    1c:d5:48:b0:b0:4b:6e:43:91:7f:a8:ca:7c:74:6d:
                    de:5d
                Exponent: 65537 (0x10001)
    Signature Algorithm: sha256WithRSAEncryption
         99:78:bb:71:76:cb:a6:a9:7d:0e:d8:ae:55:ba:1e:20:1d:94:
         9f:98:f9:32:84:be:ba:d7:fa:84:3c:eb:d9:38:5a:22:4d:e8:
         1a:97:f4:89:eb:40:86:ac:a8:c7:ba:78:cc:58:2a:0d:5a:9f:
         0d:b1:29:a0:f9:1c:bc:c0:04:83:57:a5:0c:25:e6:a0:01:45:
         26:11:29:d8:5a:38:43:68:69:3e:60:63:c0:b6:9a:a7:16:7d:
         b6:ce:c1:1e:31:b2:ac:bf:01:d3:a7:77:9c:61:f6:23:cd:d7:
         dc:1c:00:ab:99:af:cb:5b:3e:d3:ac:f3:09:3b:ba:f9:a1:56:
         cc:e2:d2:b3:50:7f:c5:48:f6:df:db:78:f1:7c:62:9d:9d:aa:
         c0:42:0f:34:8f:79:67:72:0a:ce:6b:e6:5a:f9:fa:fc:14:4d:
         15:6c:cf:af:13:80:23:8c:3d:9d:ea:fb:4c:65:1a:12:f5:51:
         38:66:2e:1d:f4:fb:70:05:93:a6:1f:e7:f9:3b:ed:61:e9:c3:
         df:8b:5d:c4:04:8f:d3:b7:8e:42:c1:9e:0a:e2:4f:6a:88:f6:
         0e:25:02:b0:74:f2:5c:f2:5d:cd:e1:29:8d:7b:01:c7:92:15:
         75:46:32:05:d7:a5:52:80:da:b0:6f:3e:00:3d:44:c0:ea:46:
         95:bc:db:be:47:dd:e4:02:be:92:d9:e5:08:aa:eb:12:37:5d:
         6c:16:ae:a5:c1:03:44:2a:78:4d:47:2e:be:39:4a:7b:2e:c1:
         76:da:f6:7f:29:dc:e2:f1:c6:a6:7a:ef:cc:ba:b7:ec:89:f9:
         c8:25:05:9d:a5:f3:61:71:ae:45:c4:31:fb:ab:26:9f:b7:5c:
         1d:6f:19:f6:f7:c8:7b:48:cd:67:64:52:f8:f5:06:2e:43:33:
         7b:73:d4:a7:4e:f8:4c:bd:01:00:d9:50:9a:0a:ea:c1:a2:a2:
         f1:a5:85:17:0e:65:88:5c:06:c5:d3:04:35:f7:0d:b3:8b:fc:
         da:82:59:e8:69:64:2e:52:af:00:2b:cd:13:95:4f:0e:31:a6:
         df:37:a8:e8:b0:28:07:63:5a:90:29:6a:27:64:f7:d3:1b:6b:
         b6:e5:6c:12:e2:1a:b3:fa:6b:0c:d3:bd:da:ef:04:61:49:2f:
         10:9a:ea:4c:a1:45:14:43:b6:de:21:f1:1f:a8:cf:73:2b:11:
         73:28:25:50:df:e7:ca:75:5f:61:9d:c6:f3:1d:c7:c6:e9:06:
         74:01:9a:62:f0:87:18:a1:c8:ac:43:74:1c:50:c5:64:22:d6:
         4a:5a:15:1e:9c:d0:c3:3d:0b:ab:be:8b:08:3a:bf:93:fe:22:
         db:92:7a:1f:a9:29:b8:cc
-----BEGIN CERTIFICATE-----
MIIEDzCCAfcCAhAAMA0GCSqGSIb3DQEBCwUAMFoxCzAJBgNVBAYTAlRSMQ8wDQYD
VQQIDAZUdXJrZXkxFDASBgNVBAoMC0FyY2VsaWsgQS5TMSQwIgYDVQQDDBtBcmNl
bGlrIEEuUyBJbnRlcm1lZGlhdGUgQ0EwHhcNMTYwMjEwMDgyOTM2WhcNMTcwMjE5
MDgyOTM2WjBAMQswCQYDVQQGEwJUUjEPMA0GA1UECAwGQW5rYXJhMREwDwYDVQQK
DAhEZXYxIEx0ZDENMAsGA1UEAwwERGV2MTCCASIwDQYJKoZIhvcNAQEBBQADggEP
ADCCAQoCggEBAK2xCerQmXEoVFkl9tpW7r/ME2ZgdKzVK4mXY5amblxeqRCeM8WV
BkI2MeF1FVBEVuXQ0WjctHWb9CRWt5aAFHAbvgJwBFq6fgPDkf7/uZN/xkG5IsRF
0M5jlUv+ZcaLrr0AtXSB0D6NiIcxCz3ztMQG8dn0km/IocuvZ+5v8wwMPd15X+1y
pbATE0xhLaucpmb0fAvCMGhWMGLxOEYX4qLCcWEMfysdm9HDpFn2LXUKP1AxvGXI
z26pDHt1JnwchFhHSu6MhYHPiED1wM+XRCY23TM4eNBYOCz37jXqajKb8F8gFIbj
JeKN+SyUwSHxHNVIsLBLbkORf6jKfHRt3l0CAwEAATANBgkqhkiG9w0BAQsFAAOC
AgEAmXi7cXbLpql9DtiuVboeIB2Un5j5MoS+utf6hDzr2ThaIk3oGpf0ietAhqyo
x7p4zFgqDVqfDbEpoPkcvMAEg1elDCXmoAFFJhEp2Fo4Q2hpPmBjwLaapxZ9ts7B
HjGyrL8B06d3nGH2I83X3BwAq5mvy1s+06zzCTu6+aFWzOLSs1B/xUj239t48Xxi
nZ2qwEIPNI95Z3IKzmvmWvn6/BRNFWzPrxOAI4w9ner7TGUaEvVROGYuHfT7cAWT
ph/n+TvtYenD34tdxASP07eOQsGeCuJPaoj2DiUCsHTyXPJdzeEpjXsBx5IVdUYy
BdelUoDasG8+AD1EwOpGlbzbvkfd5AK+ktnlCKrrEjddbBaupcEDRCp4TUcuvjlK
ey7Bdtr2fync4vHGpnrvzLq37In5yCUFnaXzYXGuRcQx+6smn7dcHW8Z9vfIe0jN
Z2RS+PUGLkMze3PUp074TL0BANlQmgrqwaKi8aWFFw5liFwGxdMENfcNs4v82oJZ
6GlkLlKvACvNE5VPDjGm3zeo6LAoB2NakClqJ2T30xtrtuVsEuIas/prDNO92u8E
YUkvEJrqTKFFFEO23iHxH6jPcysRcyglUN/nynVfYZ3G8x3HxukGdAGaYvCHGKHI
rEN0HFDFZCLWSloVHpzQwz0Lq76LCDq/k/4i25J6H6kpuMw=
-----END CERTIFICATE-----
